; Function Attrs: nounwind uwtable
define dso_local range(i32 -1, 1) i32 @PyType_Watch(i32 noundef %0, ptr noundef %1) local_unnamed_addr #1 {
  %3 = getelementptr i8, ptr %1, i64 8
  %.val = load ptr, ptr %3, align 8, !tbaa !116
  %4 = getelementptr i8, ptr %.val, i64 168
  %.val.val = load i64, ptr %4, align 8, !tbaa !108
  %5 = and i64 %.val.val, 2147483648
  %.not9 = icmp eq i64 %5, 0
  br i1 %.not9, label %6, label %8

6:                                                ; preds = %2
  %7 = load ptr, ptr @PyExc_ValueError, align 8, !tbaa !105
  tail call void @PyErr_SetString(ptr noundef %7, ptr noundef nonnull @.str.10) #24
  br label %26

8:                                                ; preds = %2
  %9 = tail call align 8 ptr @llvm.threadlocal.address.p0(ptr align 8 @_Py_tss_tstate)
  %10 = load ptr, ptr %9, align 8, !tbaa !22
  %11 = getelementptr inbounds nuw i8, ptr %10, i64 16
  %12 = load ptr, ptr %11, align 8, !tbaa !24
  %or.cond.i = icmp ugt i32 %0, 7
  br i1 %or.cond.i, label %validate_watcher_id.exit.thread, label %13

13:                                               ; preds = %8
  %14 = getelementptr inbounds nuw i8, ptr %12, i64 10832
  %15 = zext nneg i32 %0 to i64
  %16 = getelementptr [8 x ptr], ptr %14, i64 0, i64 %15
  %17 = load ptr, ptr %16, align 8, !tbaa !111
  %.not.i = icmp eq ptr %17, null
  br i1 %.not.i, label %validate_watcher_id.exit.thread, label %validate_watcher_id.exit

validate_watcher_id.exit.thread:                  ; preds = %8, %13
  %.str.48.sink.i = phi ptr [ @.str.47, %8 ], [ @.str.48, %13 ]
  %18 = load ptr, ptr @PyExc_ValueError, align 8, !tbaa !105
  %19 = tail call ptr (ptr, ptr, ...) @PyErr_Format(ptr noundef %18, ptr noundef nonnull %.str.48.sink.i, i32 noundef %0) #24
  br label %26

validate_watcher_id.exit:                         ; preds = %13
  %20 = tail call fastcc i32 @assign_version_tag(ptr noundef nonnull %12, ptr noundef nonnull %1)
  %21 = shl nuw nsw i32 1, %0
  %22 = getelementptr inbounds nuw i8, ptr %1, i64 408
  %23 = load i8, ptr %22, align 8, !tbaa !129
  %24 = trunc nuw i32 %21 to i8
  %25 = or i8 %23, %24
  store i8 %25, ptr %22, align 8, !tbaa !129
  br label %26

26:                                               ; preds = %validate_watcher_id.exit.thread, %validate_watcher_id.exit, %6
  %.0 = phi i32 [ -1, %6 ], [ 0, %validate_watcher_id.exit ], [ -1, %validate_watcher_id.exit.thread ]
  ret i32 %.0
}